; Function Attrs: nounwind uwtable
define internal noundef i32 @lj_cf_io_method___tostring(ptr noundef %0) #0 {
  %2 = getelementptr inbounds nuw i8, ptr %0, i64 32
  %3 = load ptr, ptr %2, align 8, !tbaa !25
  %4 = getelementptr inbounds nuw i8, ptr %0, i64 40
  %5 = load ptr, ptr %4, align 8, !tbaa !4
  %6 = icmp ult ptr %3, %5
  br i1 %6, label %7, label %16

7:                                                ; preds = %1
  %8 = load i64, ptr %3, align 8, !tbaa !14
  %.mask.i = and i64 %8, -140737488355328
  %9 = icmp eq i64 %.mask.i, -1829587348619264
  br i1 %9, label %10, label %16

10:                                               ; preds = %7
  %11 = and i64 %8, 140737488355327
  %12 = inttoptr i64 %11 to ptr
  %13 = getelementptr inbounds nuw i8, ptr %12, i64 10
  %14 = load i8, ptr %13, align 2, !tbaa !14
  %15 = icmp eq i8 %14, 1
  br i1 %15, label %io_tofilep.exit, label %16

16:                                               ; preds = %10, %7, %1
  tail call void @lj_err_argtype(ptr noundef nonnull %0, i32 noundef 1, ptr noundef nonnull @.str) #11
  unreachable

io_tofilep.exit:                                  ; preds = %10
  %17 = getelementptr inbounds nuw i8, ptr %12, i64 48
  %18 = load ptr, ptr %17, align 8, !tbaa !20
  %.not = icmp eq ptr %18, null
  br i1 %.not, label %21, label %19

19:                                               ; preds = %io_tofilep.exit
  %20 = tail call ptr (ptr, ptr, ...) @lua_pushfstring(ptr noundef nonnull %0, ptr noundef nonnull @.str.11, ptr noundef nonnull %18) #10
  br label %22

21:                                               ; preds = %io_tofilep.exit
  tail call void @lua_pushlstring(ptr noundef nonnull %0, ptr noundef nonnull @.str.12, i64 noundef 13) #10
  br label %22

22:                                               ; preds = %21, %19
  ret i32 1
}